; Function Attrs: mustprogress uwtable
define void @_ZN3nix18RestoreRegularFile19preallocateContentsEm(ptr noundef nonnull align 8 dereferenceable(12) %0, i64 noundef %1) unnamed_addr #4 align 2 personality ptr @__gxx_personality_v0 {
  %3 = alloca i64, align 8
  store i64 %1, ptr %3, align 8
  %4 = load i8, ptr getelementptr inbounds (%"struct.nix::RestoreSinkSettings", ptr @_ZN3nixL19restoreSinkSettingsE, i64 0, i32 1, i32 0, i32 1), align 8
  %5 = and i8 %4, 1
  %6 = icmp ne i8 %5, 0
  %7 = icmp ne i64 %1, 0
  %or.cond = and i1 %7, %6
  br i1 %or.cond, label %8, label %18

8:                                                ; preds = %2
  %9 = getelementptr inbounds i8, ptr %0, i64 8
  %10 = tail call noundef i32 @_ZNK3nix11AutoCloseFD3getEv(ptr noundef nonnull align 4 dereferenceable(4) %9)
  %11 = tail call i32 @posix_fallocate(i32 noundef %10, i64 noundef 0, i64 noundef %1)
  %12 = tail call ptr @__errno_location() #31
  store i32 %11, ptr %12, align 4
  switch i32 %11, label %13 [
    i32 0, label %18
    i32 22, label %18
    i32 95, label %18
    i32 38, label %18
  ]

13:                                               ; preds = %8
  %14 = tail call ptr @__cxa_allocate_exception(i64 384) #26
  invoke void @_ZN3nix8SysErrorC2IJA32_cmEEEDpRKT_(ptr noundef nonnull align 8 dereferenceable(380) %14, ptr noundef nonnull align 1 dereferenceable(32) @.str.11, ptr noundef nonnull align 8 dereferenceable(8) %3)
          to label %15 unwind label %16

15:                                               ; preds = %13
  call void @__cxa_throw(ptr nonnull %14, ptr nonnull @_ZTIN3nix8SysErrorE, ptr nonnull @_ZN3nix8SysErrorD2Ev) #30
  unreachable

16:                                               ; preds = %13
  %17 = landingpad { ptr, i32 }
          cleanup
  call void @__cxa_free_exception(ptr %14) #26
  resume { ptr, i32 } %17

18:                                               ; preds = %8, %8, %8, %8, %2
  ret void
}